; Function Attrs: mustprogress uwtable
define dso_local void @_ZN4Luau6Parser25incrementRecursionCounterEPKc(ptr noundef nonnull align 8 captures(none) dereferenceable(1072) %0, ptr noundef %1) local_unnamed_addr #2 align 2 {
  %3 = getelementptr inbounds nuw i8, ptr %0, i64 276
  %4 = load i32, ptr %3, align 4, !tbaa !287
  %5 = add i32 %4, 1
  store i32 %5, ptr %3, align 4, !tbaa !287
  %6 = load i32, ptr @_ZN4FInt18LuauRecursionLimitE, align 8, !tbaa !288
  %7 = icmp ugt i32 %5, %6
  br i1 %7, label %8, label %10

8:                                                ; preds = %2
  %9 = getelementptr inbounds nuw i8, ptr %0, i64 132
  tail call void (ptr, ptr, ...) @_ZN4Luau10ParseError5raiseERKNS_8LocationEPKcz(ptr noundef nonnull align 4 dereferenceable(16) %9, ptr noundef nonnull @.str.224, ptr noundef %1) #30
  unreachable

10:                                               ; preds = %2
  ret void
}